target datalayout = "e-m:e-p270:32:32-p271:32:32-p272:64:64-i64:64-i128:128-f80:128-n8:16:32:64-S128"
target triple = "x86_64-pc-linux-gnu"

%"struct.llvm::MachineSchedContext" = type { ptr, ptr, ptr, ptr, ptr, ptr, ptr, ptr }

@_ZTVN4llvm19MachineSchedContextE = unnamed_addr constant { [4 x ptr] } { [4 x ptr] [ptr null, ptr null, ptr @_ZN4llvm19MachineSchedContextD1Ev, ptr @_ZN4llvm19MachineSchedContextD0Ev] }, align 8

; Function Attrs: mustprogress nounwind uwtable
define dso_local void @_ZN4llvm19MachineSchedContextC2Ev(ptr noundef nonnull align 8 dereferenceable(64) %0) unnamed_addr #1 align 2 {
  %2 = alloca ptr, align 8
  store ptr %0, ptr %2, align 8
  %3 = load ptr, ptr %2, align 8
  store ptr getelementptr inbounds inrange(-16, 16) ({ [4 x ptr] }, ptr @_ZTVN4llvm19MachineSchedContextE, i32 0, i32 0, i32 2), ptr %3, align 8
  %4 = getelementptr inbounds nuw %"struct.llvm::MachineSchedContext", ptr %3, i32 0, i32 1
  store ptr null, ptr %4, align 8
  %5 = getelementptr inbounds nuw %"struct.llvm::MachineSchedContext", ptr %3, i32 0, i32 2
  store ptr null, ptr %5, align 8
  %6 = getelementptr inbounds nuw %"struct.llvm::MachineSchedContext", ptr %3, i32 0, i32 3
  store ptr null, ptr %6, align 8
  %7 = getelementptr inbounds nuw %"struct.llvm::MachineSchedContext", ptr %3, i32 0, i32 4
  store ptr null, ptr %7, align 8
  %8 = getelementptr inbounds nuw %"struct.llvm::MachineSchedContext", ptr %3, i32 0, i32 5
  store ptr null, ptr %8, align 8
  %9 = getelementptr inbounds nuw %"struct.llvm::MachineSchedContext", ptr %3, i32 0, i32 6
  store ptr null, ptr %9, align 8
  %10 = call noalias noundef nonnull ptr @_Znwm(i64 noundef 320) #16
  call void @_ZN4llvm17RegisterClassInfoC1Ev(ptr noundef nonnull align 8 dereferenceable(320) %10)
  %11 = getelementptr inbounds nuw %"struct.llvm::MachineSchedContext", ptr %3, i32 0, i32 7
  store ptr %10, ptr %11, align 8
  ret void
}