; Function Attrs: mustprogress nounwind uwtable
define dso_local void @_ZN4llvm19MachineSchedContextC2Ev(ptr noundef nonnull writeonly align 8 captures(none) dereferenceable(64) initializes((0, 64)) %0) unnamed_addr #0 align 2 {
  store ptr getelementptr inbounds nuw inrange(-16, 16) (i8, ptr @_ZTVN4llvm19MachineSchedContextE, i64 16), ptr %0, align 8
  %2 = getelementptr inbounds nuw i8, ptr %0, i64 8
  tail call void @llvm.memset.p0.i64(ptr noundef nonnull align 8 dereferenceable(48) %2, i8 0, i64 48, i1 false)
  %3 = tail call noalias noundef nonnull dereferenceable(320) ptr @_Znwm(i64 noundef 320) #29
  tail call void @_ZN4llvm17RegisterClassInfoC1Ev(ptr noundef nonnull align 8 dereferenceable(320) %3) #28
  %4 = getelementptr inbounds nuw i8, ptr %0, i64 56
  store ptr %3, ptr %4, align 8
  ret void
}